(lp0
(S'elfflags'
p1
ccopy_reg
_reconstructor
p2
(cino.utils
SpaceList
p3
c__builtin__
list
p4
(lp5
S'-Os'
p6
aS'-Wl,--gc-sections'
p7
aS'-mmcu=atmega328p'
p8
atp9
Rp10
tp11
a(S'cc'
p12
S'/Applications/Arduino.app/Contents/Resources/Java/hardware/tools/avr/bin/avr-gcc'
p13
tp14
a(S'build_dir'
p15
S'.build/uno'
p16
tp17
a(S'avrdude'
p18
S'/Applications/Arduino.app/Contents/Resources/Java/hardware/tools/avr/bin/avrdude'
p19
tp20
a(S'ar'
p21
S'/Applications/Arduino.app/Contents/Resources/Java/hardware/tools/avr/bin/avr-ar'
p22
tp23
a(S'names'
p24
(dp25
S'cpp'
p26
S'%s.cpp'
p27
sS'obj'
p28
S'%s.o'
p29
sS'deps'
p30
S'%s.d'
p31
sS'lib'
p32
S'lib%s.a'
p33
stp34
a(S'arduino_lib_version'
p35
g2
(cino.environment
Version
p36
c__builtin__
tuple
p37
(I1
I0
tp38
tp39
Rp40
tp41
a(S'objcopy'
p42
S'/Applications/Arduino.app/Contents/Resources/Java/hardware/tools/avr/bin/avr-objcopy'
p43
tp44
a(S'board_models'
p45
cino.environment
BoardModels
p46
((lp47
(lp48
S'uno'
p49
a(dp50
S'bootloader'
p51
(dp52
S'extended_fuses'
p53
S'0x05'
p54
sS'high_fuses'
p55
S'0xde'
p56
sS'low_fuses'
p57
S'0xff'
p58
sS'lock_bits'
p59
S'0x0F'
p60
sS'file'
p61
S'optiboot_atmega328.hex'
p62
sS'path'
p63
S'optiboot'
p64
sS'unlock_bits'
p65
S'0x3F'
p66
ssS'upload'
p67
(dp68
S'protocol'
p69
S'arduino'
p70
sS'maximum_size'
p71
S'32256'
p72
sS'speed'
p73
S'115200'
p74
ssS'build'
p75
(dp76
S'core'
p77
S'arduino'
p78
sS'mcu'
p79
S'atmega328p'
p80
sS'f_cpu'
p81
S'16000000L'
p82
sS'variant'
p83
S'standard'
p84
ssS'name'
p85
S'Arduino Uno'
p86
saa(lp87
S'atmega328'
p88
a(dp89
S'bootloader'
p90
(dp91
S'extended_fuses'
p92
S'0x05'
p93
sS'high_fuses'
p94
S'0xDA'
p95
sS'low_fuses'
p96
S'0xFF'
p97
sS'lock_bits'
p98
S'0x0F'
p99
sS'file'
p100
S'ATmegaBOOT_168_atmega328.hex'
p101
sS'path'
p102
S'atmega'
p103
sS'unlock_bits'
p104
S'0x3F'
p105
ssS'upload'
p106
(dp107
S'protocol'
p108
S'arduino'
p109
sS'maximum_size'
p110
S'30720'
p111
sS'speed'
p112
S'57600'
p113
ssS'build'
p114
(dp115
S'core'
p116
S'arduino'
p117
sS'mcu'
p118
S'atmega328p'
p119
sS'f_cpu'
p120
S'16000000L'
p121
sS'variant'
p122
S'standard'
p123
ssS'name'
p124
S'Arduino Duemilanove w/ ATmega328'
p125
saa(lp126
S'diecimila'
p127
a(dp128
S'bootloader'
p129
(dp130
S'extended_fuses'
p131
S'0x00'
p132
sS'high_fuses'
p133
S'0xdd'
p134
sS'low_fuses'
p135
S'0xff'
p136
sS'lock_bits'
p137
S'0x0F'
p138
sS'file'
p139
S'ATmegaBOOT_168_diecimila.hex'
p140
sS'path'
p141
S'atmega'
p142
sS'unlock_bits'
p143
S'0x3F'
p144
ssS'upload'
p145
(dp146
S'protocol'
p147
S'arduino'
p148
sS'maximum_size'
p149
S'14336'
p150
sS'speed'
p151
S'19200'
p152
ssS'build'
p153
(dp154
S'core'
p155
S'arduino'
p156
sS'mcu'
p157
S'atmega168'
p158
sS'f_cpu'
p159
S'16000000L'
p160
sS'variant'
p161
S'standard'
p162
ssS'name'
p163
S'Arduino Diecimila or Duemilanove w/ ATmega168'
p164
saa(lp165
S'nano328'
p166
a(dp167
S'bootloader'
p168
(dp169
S'extended_fuses'
p170
S'0x05'
p171
sS'high_fuses'
p172
S'0xDA'
p173
sS'low_fuses'
p174
S'0xFF'
p175
sS'lock_bits'
p176
S'0x0F'
p177
sS'file'
p178
S'ATmegaBOOT_168_atmega328.hex'
p179
sS'path'
p180
S'atmega'
p181
sS'unlock_bits'
p182
S'0x3F'
p183
ssS'upload'
p184
(dp185
S'protocol'
p186
S'arduino'
p187
sS'maximum_size'
p188
S'30720'
p189
sS'speed'
p190
S'57600'
p191
ssS'build'
p192
(dp193
S'core'
p194
S'arduino'
p195
sS'mcu'
p196
S'atmega328p'
p197
sS'f_cpu'
p198
S'16000000L'
p199
sS'variant'
p200
S'eightanaloginputs'
p201
ssS'name'
p202
S'Arduino Nano w/ ATmega328'
p203
saa(lp204
S'nano'
p205
a(dp206
S'bootloader'
p207
(dp208
S'extended_fuses'
p209
S'0x00'
p210
sS'high_fuses'
p211
S'0xdd'
p212
sS'low_fuses'
p213
S'0xff'
p214
sS'lock_bits'
p215
S'0x0F'
p216
sS'file'
p217
S'ATmegaBOOT_168_diecimila.hex'
p218
sS'path'
p219
S'atmega'
p220
sS'unlock_bits'
p221
S'0x3F'
p222
ssS'upload'
p223
(dp224
S'protocol'
p225
S'arduino'
p226
sS'maximum_size'
p227
S'14336'
p228
sS'speed'
p229
S'19200'
p230
ssS'build'
p231
(dp232
S'core'
p233
S'arduino'
p234
sS'mcu'
p235
S'atmega168'
p236
sS'f_cpu'
p237
S'16000000L'
p238
sS'variant'
p239
S'eightanaloginputs'
p240
ssS'name'
p241
S'Arduino Nano w/ ATmega168'
p242
saa(lp243
S'mega2560'
p244
a(dp245
S'bootloader'
p246
(dp247
S'extended_fuses'
p248
S'0xFD'
p249
sS'high_fuses'
p250
S'0xD8'
p251
sS'low_fuses'
p252
S'0xFF'
p253
sS'lock_bits'
p254
S'0x0F'
p255
sS'file'
p256
S'stk500boot_v2_mega2560.hex'
p257
sS'path'
p258
S'stk500v2'
p259
sS'unlock_bits'
p260
S'0x3F'
p261
ssS'upload'
p262
(dp263
S'protocol'
p264
S'wiring'
p265
sS'maximum_size'
p266
S'258048'
p267
sS'speed'
p268
S'115200'
p269
ssS'build'
p270
(dp271
S'core'
p272
S'arduino'
p273
sS'mcu'
p274
S'atmega2560'
p275
sS'f_cpu'
p276
S'16000000L'
p277
sS'variant'
p278
S'mega'
p279
ssS'name'
p280
S'Arduino Mega 2560 or Mega ADK'
p281
saa(lp282
S'mega'
p283
a(dp284
S'bootloader'
p285
(dp286
S'extended_fuses'
p287
S'0xF5'
p288
sS'high_fuses'
p289
S'0xDA'
p290
sS'low_fuses'
p291
S'0xFF'
p292
sS'lock_bits'
p293
S'0x0F'
p294
sS'file'
p295
S'ATmegaBOOT_168_atmega1280.hex'
p296
sS'path'
p297
S'atmega'
p298
sS'unlock_bits'
p299
S'0x3F'
p300
ssS'upload'
p301
(dp302
S'protocol'
p303
S'arduino'
p304
sS'maximum_size'
p305
S'126976'
p306
sS'speed'
p307
S'57600'
p308
ssS'build'
p309
(dp310
S'core'
p311
S'arduino'
p312
sS'mcu'
p313
S'atmega1280'
p314
sS'f_cpu'
p315
S'16000000L'
p316
sS'variant'
p317
S'mega'
p318
ssS'name'
p319
S'Arduino Mega (ATmega1280)'
p320
saa(lp321
S'leonardo'
p322
a(dp323
S'bootloader'
p324
(dp325
S'extended_fuses'
p326
S'0xcb'
p327
sS'high_fuses'
p328
S'0xd8'
p329
sS'low_fuses'
p330
S'0xff'
p331
sS'lock_bits'
p332
S'0x2F'
p333
sS'file'
p334
S'Caterina-Leonardo.hex'
p335
sS'path'
p336
S'caterina'
p337
sS'unlock_bits'
p338
S'0x3F'
p339
ssS'upload'
p340
(dp341
S'protocol'
p342
S'avr109'
p343
sS'maximum_size'
p344
S'28672'
p345
sS'speed'
p346
S'57600'
p347
sS'disable_flushing'
p348
S'true'
p349
ssS'build'
p350
(dp351
S'core'
p352
S'arduino'
p353
sS'f_cpu'
p354
S'16000000L'
p355
sS'vid'
p356
S'0x2341'
p357
sS'pid'
p358
S'0x8036'
p359
sS'variant'
p360
S'leonardo'
p361
sS'mcu'
p362
S'atmega32u4'
p363
ssS'name'
p364
S'Arduino Leonardo'
p365
saa(lp366
S'esplora'
p367
a(dp368
S'bootloader'
p369
(dp370
S'extended_fuses'
p371
S'0xcb'
p372
sS'high_fuses'
p373
S'0xd8'
p374
sS'low_fuses'
p375
S'0xff'
p376
sS'lock_bits'
p377
S'0x2F'
p378
sS'file'
p379
S'Caterina-Esplora.hex'
p380
sS'path'
p381
S'caterina'
p382
sS'unlock_bits'
p383
S'0x3F'
p384
ssS'upload'
p385
(dp386
S'protocol'
p387
S'avr109'
p388
sS'maximum_size'
p389
S'28672'
p390
sS'speed'
p391
S'57600'
p392
sS'disable_flushing'
p393
S'true'
p394
ssS'build'
p395
(dp396
S'core'
p397
S'arduino'
p398
sS'f_cpu'
p399
S'16000000L'
p400
sS'vid'
p401
S'0x2341'
p402
sS'pid'
p403
S'0x803C'
p404
sS'variant'
p405
S'leonardo'
p406
sS'mcu'
p407
S'atmega32u4'
p408
ssS'name'
p409
S'Arduino Esplora'
p410
saa(lp411
S'micro'
p412
a(dp413
S'bootloader'
p414
(dp415
S'extended_fuses'
p416
S'0xcb'
p417
sS'high_fuses'
p418
S'0xd8'
p419
sS'low_fuses'
p420
S'0xff'
p421
sS'lock_bits'
p422
S'0x2F'
p423
sS'file'
p424
S'Caterina-Micro.hex'
p425
sS'path'
p426
S'caterina'
p427
sS'unlock_bits'
p428
S'0x3F'
p429
ssS'upload'
p430
(dp431
S'protocol'
p432
S'avr109'
p433
sS'maximum_size'
p434
S'28672'
p435
sS'speed'
p436
S'57600'
p437
sS'disable_flushing'
p438
S'true'
p439
ssS'build'
p440
(dp441
S'core'
p442
S'arduino'
p443
sS'f_cpu'
p444
S'16000000L'
p445
sS'vid'
p446
S'0x2341'
p447
sS'pid'
p448
S'0x8037'
p449
sS'variant'
p450
S'micro'
p451
sS'mcu'
p452
S'atmega32u4'
p453
ssS'name'
p454
S'Arduino Micro'
p455
saa(lp456
S'mini328'
p457
a(dp458
S'bootloader'
p459
(dp460
S'extended_fuses'
p461
S'0x05'
p462
sS'high_fuses'
p463
S'0xd8'
p464
sS'low_fuses'
p465
S'0xff'
p466
sS'lock_bits'
p467
S'0x0F'
p468
sS'file'
p469
S'optiboot_atmega328-Mini.hex'
p470
sS'path'
p471
S'optiboot'
p472
sS'unlock_bits'
p473
S'0x3F'
p474
ssS'upload'
p475
(dp476
S'protocol'
p477
S'arduino'
p478
sS'maximum_size'
p479
S'28672'
p480
sS'speed'
p481
S'115200'
p482
ssS'build'
p483
(dp484
S'core'
p485
S'arduino'
p486
sS'mcu'
p487
S'atmega328p'
p488
sS'f_cpu'
p489
S'16000000L'
p490
sS'variant'
p491
S'eightanaloginputs'
p492
ssS'name'
p493
S'Arduino Mini w/ ATmega328'
p494
saa(lp495
S'mini'
p496
a(dp497
S'bootloader'
p498
(dp499
S'extended_fuses'
p500
S'0x00'
p501
sS'high_fuses'
p502
S'0xdd'
p503
sS'low_fuses'
p504
S'0xff'
p505
sS'lock_bits'
p506
S'0x0F'
p507
sS'file'
p508
S'ATmegaBOOT_168_ng.hex'
p509
sS'path'
p510
S'atmega'
p511
sS'unlock_bits'
p512
S'0x3F'
p513
ssS'upload'
p514
(dp515
S'protocol'
p516
S'arduino'
p517
sS'maximum_size'
p518
S'14336'
p519
sS'speed'
p520
S'19200'
p521
ssS'build'
p522
(dp523
S'core'
p524
S'arduino'
p525
sS'mcu'
p526
S'atmega168'
p527
sS'f_cpu'
p528
S'16000000L'
p529
sS'variant'
p530
S'eightanaloginputs'
p531
ssS'name'
p532
S'Arduino Mini w/ ATmega168'
p533
saa(lp534
S'ethernet'
p535
a(dp536
S'bootloader'
p537
(dp538
S'extended_fuses'
p539
S'0x05'
p540
sS'high_fuses'
p541
S'0xde'
p542
sS'low_fuses'
p543
S'0xff'
p544
sS'lock_bits'
p545
S'0x0F'
p546
sS'file'
p547
S'optiboot_atmega328.hex'
p548
sS'path'
p549
S'optiboot'
p550
sS'unlock_bits'
p551
S'0x3F'
p552
ssS'upload'
p553
(dp554
S'protocol'
p555
S'arduino'
p556
sS'maximum_size'
p557
S'32256'
p558
sS'speed'
p559
S'115200'
p560
ssS'build'
p561
(dp562
S'variant'
p563
S'standard'
p564
sS'mcu'
p565
S'atmega328p'
p566
sS'f_cpu'
p567
S'16000000L'
p568
sS'core'
p569
S'arduino'
p570
ssS'name'
p571
S'Arduino Ethernet'
p572
saa(lp573
S'fio'
p574
a(dp575
S'bootloader'
p576
(dp577
S'extended_fuses'
p578
S'0x05'
p579
sS'high_fuses'
p580
S'0xDA'
p581
sS'low_fuses'
p582
S'0xFF'
p583
sS'lock_bits'
p584
S'0x0F'
p585
sS'file'
p586
S'ATmegaBOOT_168_atmega328_pro_8MHz.hex'
p587
sS'path'
p588
S'arduino:atmega'
p589
sS'unlock_bits'
p590
S'0x3F'
p591
ssS'upload'
p592
(dp593
S'protocol'
p594
S'arduino'
p595
sS'maximum_size'
p596
S'30720'
p597
sS'speed'
p598
S'57600'
p599
ssS'build'
p600
(dp601
S'core'
p602
S'arduino'
p603
sS'mcu'
p604
S'atmega328p'
p605
sS'f_cpu'
p606
S'8000000L'
p607
sS'variant'
p608
S'eightanaloginputs'
p609
ssS'name'
p610
S'Arduino Fio'
p611
saa(lp612
S'bt328'
p613
a(dp614
S'bootloader'
p615
(dp616
S'extended_fuses'
p617
S'0x05'
p618
sS'high_fuses'
p619
S'0xd8'
p620
sS'low_fuses'
p621
S'0xff'
p622
sS'lock_bits'
p623
S'0x0F'
p624
sS'file'
p625
S'ATmegaBOOT_168_atmega328_bt.hex'
p626
sS'path'
p627
S'bt'
p628
sS'unlock_bits'
p629
S'0x3F'
p630
ssS'upload'
p631
(dp632
S'protocol'
p633
S'arduino'
p634
sS'maximum_size'
p635
S'28672'
p636
sS'speed'
p637
S'19200'
p638
sS'disable_flushing'
p639
S'true'
p640
ssS'build'
p641
(dp642
S'core'
p643
S'arduino'
p644
sS'mcu'
p645
S'atmega328p'
p646
sS'f_cpu'
p647
S'16000000L'
p648
sS'variant'
p649
S'eightanaloginputs'
p650
ssS'name'
p651
S'Arduino BT w/ ATmega328'
p652
saa(lp653
S'bt'
p654
a(dp655
S'bootloader'
p656
(dp657
S'extended_fuses'
p658
S'0x00'
p659
sS'high_fuses'
p660
S'0xdd'
p661
sS'low_fuses'
p662
S'0xff'
p663
sS'lock_bits'
p664
S'0x0F'
p665
sS'file'
p666
S'ATmegaBOOT_168.hex'
p667
sS'path'
p668
S'bt'
p669
sS'unlock_bits'
p670
S'0x3F'
p671
ssS'upload'
p672
(dp673
S'protocol'
p674
S'arduino'
p675
sS'maximum_size'
p676
S'14336'
p677
sS'speed'
p678
S'19200'
p679
sS'disable_flushing'
p680
S'true'
p681
ssS'build'
p682
(dp683
S'core'
p684
S'arduino'
p685
sS'mcu'
p686
S'atmega168'
p687
sS'f_cpu'
p688
S'16000000L'
p689
sS'variant'
p690
S'eightanaloginputs'
p691
ssS'name'
p692
S'Arduino BT w/ ATmega168'
p693
saa(lp694
S'LilyPadUSB'
p695
a(dp696
S'bootloader'
p697
(dp698
S'extended_fuses'
p699
S'0xce'
p700
sS'high_fuses'
p701
S'0xd8'
p702
sS'low_fuses'
p703
S'0xff'
p704
sS'lock_bits'
p705
S'0x2F'
p706
sS'file'
p707
S'Caterina-LilyPadUSB.hex'
p708
sS'path'
p709
S'caterina-LilyPadUSB'
p710
sS'unlock_bits'
p711
S'0x3F'
p712
ssS'upload'
p713
(dp714
S'protocol'
p715
S'avr109'
p716
sS'maximum_size'
p717
S'28672'
p718
sS'speed'
p719
S'57600'
p720
sS'disable_flushing'
p721
S'true'
p722
ssS'build'
p723
(dp724
S'core'
p725
S'arduino'
p726
sS'f_cpu'
p727
S'8000000L'
p728
sS'vid'
p729
S'0x1B4F'
p730
sS'pid'
p731
S'0x9208'
p732
sS'variant'
p733
S'leonardo'
p734
sS'mcu'
p735
S'atmega32u4'
p736
ssS'name'
p737
S'LilyPad Arduino USB'
p738
saa(lp739
S'lilypad328'
p740
a(dp741
S'bootloader'
p742
(dp743
S'extended_fuses'
p744
S'0x05'
p745
sS'high_fuses'
p746
S'0xDA'
p747
sS'low_fuses'
p748
S'0xFF'
p749
sS'lock_bits'
p750
S'0x0F'
p751
sS'file'
p752
S'ATmegaBOOT_168_atmega328_pro_8MHz.hex'
p753
sS'path'
p754
S'atmega'
p755
sS'unlock_bits'
p756
S'0x3F'
p757
ssS'upload'
p758
(dp759
S'protocol'
p760
S'arduino'
p761
sS'maximum_size'
p762
S'30720'
p763
sS'speed'
p764
S'57600'
p765
ssS'build'
p766
(dp767
S'core'
p768
S'arduino'
p769
sS'mcu'
p770
S'atmega328p'
p771
sS'f_cpu'
p772
S'8000000L'
p773
sS'variant'
p774
S'standard'
p775
ssS'name'
p776
S'LilyPad Arduino w/ ATmega328'
p777
saa(lp778
S'lilypad'
p779
a(dp780
S'bootloader'
p781
(dp782
S'extended_fuses'
p783
S'0x00'
p784
sS'high_fuses'
p785
S'0xdd'
p786
sS'low_fuses'
p787
S'0xe2'
p788
sS'lock_bits'
p789
S'0x0F'
p790
sS'file'
p791
S'LilyPadBOOT_168.hex'
p792
sS'path'
p793
S'lilypad'
p794
sS'unlock_bits'
p795
S'0x3F'
p796
ssS'upload'
p797
(dp798
S'protocol'
p799
S'arduino'
p800
sS'maximum_size'
p801
S'14336'
p802
sS'speed'
p803
S'19200'
p804
ssS'build'
p805
(dp806
S'core'
p807
S'arduino'
p808
sS'mcu'
p809
S'atmega168'
p810
sS'f_cpu'
p811
S'8000000L'
p812
sS'variant'
p813
S'standard'
p814
ssS'name'
p815
S'LilyPad Arduino w/ ATmega168'
p816
saa(lp817
S'pro5v328'
p818
a(dp819
S'bootloader'
p820
(dp821
S'extended_fuses'
p822
S'0x05'
p823
sS'high_fuses'
p824
S'0xDA'
p825
sS'low_fuses'
p826
S'0xFF'
p827
sS'lock_bits'
p828
S'0x0F'
p829
sS'file'
p830
S'ATmegaBOOT_168_atmega328.hex'
p831
sS'path'
p832
S'atmega'
p833
sS'unlock_bits'
p834
S'0x3F'
p835
ssS'upload'
p836
(dp837
S'protocol'
p838
S'arduino'
p839
sS'maximum_size'
p840
S'30720'
p841
sS'speed'
p842
S'57600'
p843
ssS'build'
p844
(dp845
S'core'
p846
S'arduino'
p847
sS'mcu'
p848
S'atmega328p'
p849
sS'f_cpu'
p850
S'16000000L'
p851
sS'variant'
p852
S'standard'
p853
ssS'name'
p854
S'Arduino Pro or Pro Mini (5V, 16 MHz) w/ ATmega328'
p855
saa(lp856
S'pro5v'
p857
a(dp858
S'bootloader'
p859
(dp860
S'extended_fuses'
p861
S'0x00'
p862
sS'high_fuses'
p863
S'0xdd'
p864
sS'low_fuses'
p865
S'0xff'
p866
sS'lock_bits'
p867
S'0x0F'
p868
sS'file'
p869
S'ATmegaBOOT_168_diecimila.hex'
p870
sS'path'
p871
S'atmega'
p872
sS'unlock_bits'
p873
S'0x3F'
p874
ssS'upload'
p875
(dp876
S'protocol'
p877
S'arduino'
p878
sS'maximum_size'
p879
S'14336'
p880
sS'speed'
p881
S'19200'
p882
ssS'build'
p883
(dp884
S'core'
p885
S'arduino'
p886
sS'mcu'
p887
S'atmega168'
p888
sS'f_cpu'
p889
S'16000000L'
p890
sS'variant'
p891
S'standard'
p892
ssS'name'
p893
S'Arduino Pro or Pro Mini (5V, 16 MHz) w/ ATmega168'
p894
saa(lp895
S'pro328'
p896
a(dp897
S'bootloader'
p898
(dp899
S'extended_fuses'
p900
S'0x05'
p901
sS'high_fuses'
p902
S'0xDA'
p903
sS'low_fuses'
p904
S'0xFF'
p905
sS'lock_bits'
p906
S'0x0F'
p907
sS'file'
p908
S'ATmegaBOOT_168_atmega328_pro_8MHz.hex'
p909
sS'path'
p910
S'atmega'
p911
sS'unlock_bits'
p912
S'0x3F'
p913
ssS'upload'
p914
(dp915
S'protocol'
p916
S'arduino'
p917
sS'maximum_size'
p918
S'30720'
p919
sS'speed'
p920
S'57600'
p921
ssS'build'
p922
(dp923
S'core'
p924
S'arduino'
p925
sS'mcu'
p926
S'atmega328p'
p927
sS'f_cpu'
p928
S'8000000L'
p929
sS'variant'
p930
S'standard'
p931
ssS'name'
p932
S'Arduino Pro or Pro Mini (3.3V, 8 MHz) w/ ATmega328'
p933
saa(lp934
S'pro'
p935
a(dp936
S'bootloader'
p937
(dp938
S'extended_fuses'
p939
S'0x00'
p940
sS'high_fuses'
p941
S'0xdd'
p942
sS'low_fuses'
p943
S'0xc6'
p944
sS'lock_bits'
p945
S'0x0F'
p946
sS'file'
p947
S'ATmegaBOOT_168_pro_8MHz.hex'
p948
sS'path'
p949
S'atmega'
p950
sS'unlock_bits'
p951
S'0x3F'
p952
ssS'upload'
p953
(dp954
S'protocol'
p955
S'arduino'
p956
sS'maximum_size'
p957
S'14336'
p958
sS'speed'
p959
S'19200'
p960
ssS'build'
p961
(dp962
S'core'
p963
S'arduino'
p964
sS'mcu'
p965
S'atmega168'
p966
sS'f_cpu'
p967
S'8000000L'
p968
sS'variant'
p969
S'standard'
p970
ssS'name'
p971
S'Arduino Pro or Pro Mini (3.3V, 8 MHz) w/ ATmega168'
p972
saa(lp973
S'atmega168'
p974
a(dp975
S'bootloader'
p976
(dp977
S'extended_fuses'
p978
S'0x00'
p979
sS'high_fuses'
p980
S'0xdd'
p981
sS'low_fuses'
p982
S'0xff'
p983
sS'lock_bits'
p984
S'0x0F'
p985
sS'file'
p986
S'ATmegaBOOT_168_ng.hex'
p987
sS'path'
p988
S'atmega'
p989
sS'unlock_bits'
p990
S'0x3F'
p991
ssS'upload'
p992
(dp993
S'protocol'
p994
S'arduino'
p995
sS'maximum_size'
p996
S'14336'
p997
sS'speed'
p998
S'19200'
p999
ssS'build'
p1000
(dp1001
S'core'
p1002
S'arduino'
p1003
sS'mcu'
p1004
S'atmega168'
p1005
sS'f_cpu'
p1006
S'16000000L'
p1007
sS'variant'
p1008
S'standard'
p1009
ssS'name'
p1010
S'Arduino NG or older w/ ATmega168'
p1011
saa(lp1012
S'atmega8'
p1013
a(dp1014
S'bootloader'
p1015
(dp1016
S'high_fuses'
p1017
S'0xca'
p1018
sS'low_fuses'
p1019
S'0xdf'
p1020
sS'lock_bits'
p1021
S'0x0F'
p1022
sS'file'
p1023
S'ATmegaBOOT-prod-firmware-2009-11-07.hex'
p1024
sS'path'
p1025
S'atmega8'
p1026
sS'unlock_bits'
p1027
S'0x3F'
p1028
ssS'upload'
p1029
(dp1030
S'protocol'
p1031
S'arduino'
p1032
sS'maximum_size'
p1033
S'7168'
p1034
sS'speed'
p1035
S'19200'
p1036
ssS'build'
p1037
(dp1038
S'core'
p1039
S'arduino'
p1040
sS'mcu'
p1041
S'atmega8'
p1042
sS'f_cpu'
p1043
S'16000000L'
p1044
sS'variant'
p1045
S'standard'
p1046
ssS'name'
p1047
S'Arduino NG or older w/ ATmega8'
p1048
saatp1049
Rp1050
(dp1051
S'default'
p1052
S'uno'
p1053
sbtp1054
a(S'used_libs'
p1055
(lp1056
S'lib/DoubleCounter'
p1057
aS'/Applications/Arduino.app/Contents/Resources/Java/libraries/Servo'
p1058
aS'/Applications/Arduino.app/Contents/Resources/Java/hardware/arduino/cores/arduino'
p1059
atp1060
a(S'arduino_libraries_dir'
p1061
S'/Applications/Arduino.app/Contents/Resources/Java/libraries'
p1062
tp1063
a(S'cxx'
p1064
S'/Applications/Arduino.app/Contents/Resources/Java/hardware/tools/avr/bin/avr-g++'
p1065
tp1066
a(S'cflags'
p1067
g2
(g3
g4
(lp1068
g8
aS'-ffunction-sections'
p1069
aS'-fdata-sections'
p1070
aS'-g'
p1071
ag6
aS'-w'
p1072
aS'-DF_CPU=16000000L'
p1073
aS'-DARDUINO=100'
p1074
aS'-I/Applications/Arduino.app/Contents/Resources/Java/hardware/arduino/cores/arduino'
p1075
aS'-I/Applications/Arduino.app/Contents/Resources/Java/hardware/arduino/variants/standard'
p1076
aS'-Ilib/DoubleCounter'
p1077
aS'-I/Applications/Arduino.app/Contents/Resources/Java/libraries/Servo'
p1078
aS'-I/Applications/Arduino.app/Contents/Resources/Java/hardware/arduino/cores/arduino'
p1079
atp1080
Rp1081
tp1082
a(S'cxxflags'
p1083
g2
(g3
g4
(lp1084
S'-fno-exceptions'
p1085
atp1086
Rp1087
tp1088
a(S'arduino_variants_dir'
p1089
S'/Applications/Arduino.app/Contents/Resources/Java/hardware/arduino/variants'
p1090
tp1091
a(S'serial'
p1092
S'/opt/local/bin/picocom'
p1093
tp1094
a(S'stty'
p1095
S'/bin/stty'
p1096
tp1097
a(S'version.txt'
p1098
S'/Applications/Arduino.app/Contents/Resources/Java/lib/version.txt'
p1099
tp1100
a(S'arduino_core_dir'
p1101
g1059
tp1102
a(S'boards.txt'
p1103
S'/Applications/Arduino.app/Contents/Resources/Java/hardware/arduino/boards.txt'
p1104
tp1105
a(S'avrdude.conf'
p1106
S'/Applications/Arduino.app/Contents/Resources/Java/hardware/tools/avr/etc/avrdude.conf'
p1107
tp1108
a(S'deps'
p1109
g2
(g3
g4
(lp1110
S'.build/uno/src/dependencies.d'
p1111
aS'.build/uno/arduino/dependencies.d'
p1112
aS'.build/uno/DoubleCounter/dependencies.d'
p1113
aS'.build/uno/Servo/dependencies.d'
p1114
atp1115
Rp1116
tp1117
a.